target datalayout = "e-m:e-p270:32:32-p271:32:32-p272:64:64-i64:64-i128:128-f80:128-n8:16:32:64-S128"
target triple = "x86_64-pc-linux-gnu"

%struct.mbedtls_asn1_buf = type { i32, i64, ptr }

; Function Attrs: nounwind uwtable
define hidden i32 @mbedtls_asn1_get_len(ptr noundef %0, ptr noundef %1, ptr noundef %2) #0 {
  %4 = alloca i32, align 4
  %5 = alloca ptr, align 8
  %6 = alloca ptr, align 8
  %7 = alloca ptr, align 8
  %8 = alloca i32, align 4
  %9 = alloca i32, align 4
  store ptr %0, ptr %5, align 8, !tbaa !3
  store ptr %1, ptr %6, align 8, !tbaa !9
  store ptr %2, ptr %7, align 8, !tbaa !11
  %10 = load ptr, ptr %6, align 8, !tbaa !9
  %11 = load ptr, ptr %5, align 8, !tbaa !3
  %12 = load ptr, ptr %11, align 8, !tbaa !9
  %13 = ptrtoint ptr %10 to i64
  %14 = ptrtoint ptr %12 to i64
  %15 = sub i64 %13, %14
  %16 = icmp slt i64 %15, 1
  br i1 %16, label %17, label %18

17:                                               ; preds = %3
  store i32 -96, ptr %4, align 4
  br label %93

18:                                               ; preds = %3
  %19 = load ptr, ptr %5, align 8, !tbaa !3
  %20 = load ptr, ptr %19, align 8, !tbaa !9
  %21 = load i8, ptr %20, align 1, !tbaa !13
  %22 = zext i8 %21 to i32
  %23 = and i32 %22, 128
  %24 = icmp eq i32 %23, 0
  br i1 %24, label %25, label %32

25:                                               ; preds = %18
  %26 = load ptr, ptr %5, align 8, !tbaa !3
  %27 = load ptr, ptr %26, align 8, !tbaa !9
  %28 = getelementptr inbounds nuw i8, ptr %27, i32 1
  store ptr %28, ptr %26, align 8, !tbaa !9
  %29 = load i8, ptr %27, align 1, !tbaa !13
  %30 = zext i8 %29 to i64
  %31 = load ptr, ptr %7, align 8, !tbaa !11
  store i64 %30, ptr %31, align 8, !tbaa !14
  br label %81

32:                                               ; preds = %18
  call void @llvm.lifetime.start.p0(i64 4, ptr %8) #7
  %33 = load ptr, ptr %5, align 8, !tbaa !3
  %34 = load ptr, ptr %33, align 8, !tbaa !9
  %35 = load i8, ptr %34, align 1, !tbaa !13
  %36 = zext i8 %35 to i32
  %37 = and i32 %36, 127
  store i32 %37, ptr %8, align 4, !tbaa !16
  %38 = load i32, ptr %8, align 4, !tbaa !16
  %39 = icmp eq i32 %38, 0
  br i1 %39, label %43, label %40

40:                                               ; preds = %32
  %41 = load i32, ptr %8, align 4, !tbaa !16
  %42 = icmp sgt i32 %41, 4
  br i1 %42, label %43, label %44

43:                                               ; preds = %40, %32
  store i32 -100, ptr %4, align 4
  store i32 1, ptr %9, align 4
  br label %78

44:                                               ; preds = %40
  %45 = load ptr, ptr %6, align 8, !tbaa !9
  %46 = load ptr, ptr %5, align 8, !tbaa !3
  %47 = load ptr, ptr %46, align 8, !tbaa !9
  %48 = ptrtoint ptr %45 to i64
  %49 = ptrtoint ptr %47 to i64
  %50 = sub i64 %48, %49
  %51 = load i32, ptr %8, align 4, !tbaa !16
  %52 = sext i32 %51 to i64
  %53 = icmp sle i64 %50, %52
  br i1 %53, label %54, label %55

54:                                               ; preds = %44
  store i32 -96, ptr %4, align 4
  store i32 1, ptr %9, align 4
  br label %78

55:                                               ; preds = %44
  %56 = load ptr, ptr %7, align 8, !tbaa !11
  store i64 0, ptr %56, align 8, !tbaa !14
  %57 = load ptr, ptr %5, align 8, !tbaa !3
  %58 = load ptr, ptr %57, align 8, !tbaa !9
  %59 = getelementptr inbounds nuw i8, ptr %58, i32 1
  store ptr %59, ptr %57, align 8, !tbaa !9
  br label %60

60:                                               ; preds = %64, %55
  %61 = load i32, ptr %8, align 4, !tbaa !16
  %62 = add nsw i32 %61, -1
  store i32 %62, ptr %8, align 4, !tbaa !16
  %63 = icmp ne i32 %61, 0
  br i1 %63, label %64, label %77

64:                                               ; preds = %60
  %65 = load ptr, ptr %7, align 8, !tbaa !11
  %66 = load i64, ptr %65, align 8, !tbaa !14
  %67 = shl i64 %66, 8
  %68 = load ptr, ptr %5, align 8, !tbaa !3
  %69 = load ptr, ptr %68, align 8, !tbaa !9
  %70 = load i8, ptr %69, align 1, !tbaa !13
  %71 = zext i8 %70 to i64
  %72 = or i64 %67, %71
  %73 = load ptr, ptr %7, align 8, !tbaa !11
  store i64 %72, ptr %73, align 8, !tbaa !14
  %74 = load ptr, ptr %5, align 8, !tbaa !3
  %75 = load ptr, ptr %74, align 8, !tbaa !9
  %76 = getelementptr inbounds nuw i8, ptr %75, i32 1
  store ptr %76, ptr %74, align 8, !tbaa !9
  br label %60, !llvm.loop !18

77:                                               ; preds = %60
  store i32 0, ptr %9, align 4
  br label %78

78:                                               ; preds = %77, %54, %43
  call void @llvm.lifetime.end.p0(i64 4, ptr %8) #7
  %79 = load i32, ptr %9, align 4
  switch i32 %79, label %95 [
    i32 0, label %80
    i32 1, label %93
  ]

80:                                               ; preds = %78
  br label %81

81:                                               ; preds = %80, %25
  %82 = load ptr, ptr %7, align 8, !tbaa !11
  %83 = load i64, ptr %82, align 8, !tbaa !14
  %84 = load ptr, ptr %6, align 8, !tbaa !9
  %85 = load ptr, ptr %5, align 8, !tbaa !3
  %86 = load ptr, ptr %85, align 8, !tbaa !9
  %87 = ptrtoint ptr %84 to i64
  %88 = ptrtoint ptr %86 to i64
  %89 = sub i64 %87, %88
  %90 = icmp ugt i64 %83, %89
  br i1 %90, label %91, label %92

91:                                               ; preds = %81
  store i32 -96, ptr %4, align 4
  br label %93

92:                                               ; preds = %81
  store i32 0, ptr %4, align 4
  br label %93

93:                                               ; preds = %92, %91, %78, %17
  %94 = load i32, ptr %4, align 4
  ret i32 %94

95:                                               ; preds = %78
  unreachable
}

; Function Attrs: nounwind uwtable
define hidden i32 @mbedtls_asn1_get_tag(ptr noundef %0, ptr noundef %1, ptr noundef %2, i32 noundef %3) #0 {
  %5 = alloca i32, align 4
  %6 = alloca ptr, align 8
  %7 = alloca ptr, align 8
  %8 = alloca ptr, align 8
  %9 = alloca i32, align 4
  store ptr %0, ptr %6, align 8, !tbaa !3
  store ptr %1, ptr %7, align 8, !tbaa !9
  store ptr %2, ptr %8, align 8, !tbaa !11
  store i32 %3, ptr %9, align 4, !tbaa !16
  %10 = load ptr, ptr %7, align 8, !tbaa !9
  %11 = load ptr, ptr %6, align 8, !tbaa !3
  %12 = load ptr, ptr %11, align 8, !tbaa !9
  %13 = ptrtoint ptr %10 to i64
  %14 = ptrtoint ptr %12 to i64
  %15 = sub i64 %13, %14
  %16 = icmp slt i64 %15, 1
  br i1 %16, label %17, label %18

17:                                               ; preds = %4
  store i32 -96, ptr %5, align 4
  br label %34

18:                                               ; preds = %4
  %19 = load ptr, ptr %6, align 8, !tbaa !3
  %20 = load ptr, ptr %19, align 8, !tbaa !9
  %21 = load i8, ptr %20, align 1, !tbaa !13
  %22 = zext i8 %21 to i32
  %23 = load i32, ptr %9, align 4, !tbaa !16
  %24 = icmp ne i32 %22, %23
  br i1 %24, label %25, label %26

25:                                               ; preds = %18
  store i32 -98, ptr %5, align 4
  br label %34

26:                                               ; preds = %18
  %27 = load ptr, ptr %6, align 8, !tbaa !3
  %28 = load ptr, ptr %27, align 8, !tbaa !9
  %29 = getelementptr inbounds nuw i8, ptr %28, i32 1
  store ptr %29, ptr %27, align 8, !tbaa !9
  %30 = load ptr, ptr %6, align 8, !tbaa !3
  %31 = load ptr, ptr %7, align 8, !tbaa !9
  %32 = load ptr, ptr %8, align 8, !tbaa !11
  %33 = call i32 @mbedtls_asn1_get_len(ptr noundef %30, ptr noundef %31, ptr noundef %32)
  store i32 %33, ptr %5, align 4
  br label %34

34:                                               ; preds = %26, %25, %17
  %35 = load i32, ptr %5, align 4
  ret i32 %35
}

; Function Attrs: nounwind uwtable
define hidden i32 @mbedtls_asn1_get_alg(ptr noundef %0, ptr noundef %1, ptr noundef %2, ptr noundef %3) #0 {
  %5 = alloca i32, align 4
  %6 = alloca ptr, align 8
  %7 = alloca ptr, align 8
  %8 = alloca ptr, align 8
  %9 = alloca ptr, align 8
  %10 = alloca i32, align 4
  %11 = alloca i64, align 8
  %12 = alloca i32, align 4
  store ptr %0, ptr %6, align 8, !tbaa !3
  store ptr %1, ptr %7, align 8, !tbaa !9
  store ptr %2, ptr %8, align 8, !tbaa !46
  store ptr %3, ptr %9, align 8, !tbaa !46
  call void @llvm.lifetime.start.p0(i64 4, ptr %10) #7
  store i32 -110, ptr %10, align 4, !tbaa !16
  call void @llvm.lifetime.start.p0(i64 8, ptr %11) #7
  %13 = load ptr, ptr %6, align 8, !tbaa !3
  %14 = load ptr, ptr %7, align 8, !tbaa !9
  %15 = call i32 @mbedtls_asn1_get_tag(ptr noundef %13, ptr noundef %14, ptr noundef %11, i32 noundef 48)
  store i32 %15, ptr %10, align 4, !tbaa !16
  %16 = icmp ne i32 %15, 0
  br i1 %16, label %17, label %19

17:                                               ; preds = %4
  %18 = load i32, ptr %10, align 4, !tbaa !16
  store i32 %18, ptr %5, align 4
  store i32 1, ptr %12, align 4
  br label %99

19:                                               ; preds = %4
  %20 = load ptr, ptr %7, align 8, !tbaa !9
  %21 = load ptr, ptr %6, align 8, !tbaa !3
  %22 = load ptr, ptr %21, align 8, !tbaa !9
  %23 = ptrtoint ptr %20 to i64
  %24 = ptrtoint ptr %22 to i64
  %25 = sub i64 %23, %24
  %26 = icmp slt i64 %25, 1
  br i1 %26, label %27, label %28

27:                                               ; preds = %19
  store i32 -96, ptr %5, align 4
  store i32 1, ptr %12, align 4
  br label %99

28:                                               ; preds = %19
  %29 = load ptr, ptr %6, align 8, !tbaa !3
  %30 = load ptr, ptr %29, align 8, !tbaa !9
  %31 = load i8, ptr %30, align 1, !tbaa !13
  %32 = zext i8 %31 to i32
  %33 = load ptr, ptr %8, align 8, !tbaa !46
  %34 = getelementptr inbounds nuw %struct.mbedtls_asn1_buf, ptr %33, i32 0, i32 0
  store i32 %32, ptr %34, align 8, !tbaa !48
  %35 = load ptr, ptr %6, align 8, !tbaa !3
  %36 = load ptr, ptr %35, align 8, !tbaa !9
  %37 = load i64, ptr %11, align 8, !tbaa !14
  %38 = getelementptr inbounds nuw i8, ptr %36, i64 %37
  store ptr %38, ptr %7, align 8, !tbaa !9
  %39 = load ptr, ptr %6, align 8, !tbaa !3
  %40 = load ptr, ptr %7, align 8, !tbaa !9
  %41 = load ptr, ptr %8, align 8, !tbaa !46
  %42 = getelementptr inbounds nuw %struct.mbedtls_asn1_buf, ptr %41, i32 0, i32 1
  %43 = call i32 @mbedtls_asn1_get_tag(ptr noundef %39, ptr noundef %40, ptr noundef %42, i32 noundef 6)
  store i32 %43, ptr %10, align 4, !tbaa !16
  %44 = icmp ne i32 %43, 0
  br i1 %44, label %45, label %47

45:                                               ; preds = %28
  %46 = load i32, ptr %10, align 4, !tbaa !16
  store i32 %46, ptr %5, align 4
  store i32 1, ptr %12, align 4
  br label %99

47:                                               ; preds = %28
  %48 = load ptr, ptr %6, align 8, !tbaa !3
  %49 = load ptr, ptr %48, align 8, !tbaa !9
  %50 = load ptr, ptr %8, align 8, !tbaa !46
  %51 = getelementptr inbounds nuw %struct.mbedtls_asn1_buf, ptr %50, i32 0, i32 2
  store ptr %49, ptr %51, align 8, !tbaa !49
  %52 = load ptr, ptr %8, align 8, !tbaa !46
  %53 = getelementptr inbounds nuw %struct.mbedtls_asn1_buf, ptr %52, i32 0, i32 1
  %54 = load i64, ptr %53, align 8, !tbaa !50
  %55 = load ptr, ptr %6, align 8, !tbaa !3
  %56 = load ptr, ptr %55, align 8, !tbaa !9
  %57 = getelementptr inbounds nuw i8, ptr %56, i64 %54
  store ptr %57, ptr %55, align 8, !tbaa !9
  %58 = load ptr, ptr %6, align 8, !tbaa !3
  %59 = load ptr, ptr %58, align 8, !tbaa !9
  %60 = load ptr, ptr %7, align 8, !tbaa !9
  %61 = icmp eq ptr %59, %60
  br i1 %61, label %62, label %64

62:                                               ; preds = %47
  %63 = load ptr, ptr %9, align 8, !tbaa !46
  call void @mbedtls_platform_zeroize(ptr noundef %63, i64 noundef 24)
  store i32 0, ptr %5, align 4
  store i32 1, ptr %12, align 4
  br label %99

64:                                               ; preds = %47
  %65 = load ptr, ptr %6, align 8, !tbaa !3
  %66 = load ptr, ptr %65, align 8, !tbaa !9
  %67 = load i8, ptr %66, align 1, !tbaa !13
  %68 = zext i8 %67 to i32
  %69 = load ptr, ptr %9, align 8, !tbaa !46
  %70 = getelementptr inbounds nuw %struct.mbedtls_asn1_buf, ptr %69, i32 0, i32 0
  store i32 %68, ptr %70, align 8, !tbaa !48
  %71 = load ptr, ptr %6, align 8, !tbaa !3
  %72 = load ptr, ptr %71, align 8, !tbaa !9
  %73 = getelementptr inbounds nuw i8, ptr %72, i32 1
  store ptr %73, ptr %71, align 8, !tbaa !9
  %74 = load ptr, ptr %6, align 8, !tbaa !3
  %75 = load ptr, ptr %7, align 8, !tbaa !9
  %76 = load ptr, ptr %9, align 8, !tbaa !46
  %77 = getelementptr inbounds nuw %struct.mbedtls_asn1_buf, ptr %76, i32 0, i32 1
  %78 = call i32 @mbedtls_asn1_get_len(ptr noundef %74, ptr noundef %75, ptr noundef %77)
  store i32 %78, ptr %10, align 4, !tbaa !16
  %79 = icmp ne i32 %78, 0
  br i1 %79, label %80, label %82

80:                                               ; preds = %64
  %81 = load i32, ptr %10, align 4, !tbaa !16
  store i32 %81, ptr %5, align 4
  store i32 1, ptr %12, align 4
  br label %99

82:                                               ; preds = %64
  %83 = load ptr, ptr %6, align 8, !tbaa !3
  %84 = load ptr, ptr %83, align 8, !tbaa !9
  %85 = load ptr, ptr %9, align 8, !tbaa !46
  %86 = getelementptr inbounds nuw %struct.mbedtls_asn1_buf, ptr %85, i32 0, i32 2
  store ptr %84, ptr %86, align 8, !tbaa !49
  %87 = load ptr, ptr %9, align 8, !tbaa !46
  %88 = getelementptr inbounds nuw %struct.mbedtls_asn1_buf, ptr %87, i32 0, i32 1
  %89 = load i64, ptr %88, align 8, !tbaa !50
  %90 = load ptr, ptr %6, align 8, !tbaa !3
  %91 = load ptr, ptr %90, align 8, !tbaa !9
  %92 = getelementptr inbounds nuw i8, ptr %91, i64 %89
  store ptr %92, ptr %90, align 8, !tbaa !9
  %93 = load ptr, ptr %6, align 8, !tbaa !3
  %94 = load ptr, ptr %93, align 8, !tbaa !9
  %95 = load ptr, ptr %7, align 8, !tbaa !9
  %96 = icmp ne ptr %94, %95
  br i1 %96, label %97, label %98

97:                                               ; preds = %82
  store i32 -102, ptr %5, align 4
  store i32 1, ptr %12, align 4
  br label %99

98:                                               ; preds = %82
  store i32 0, ptr %5, align 4
  store i32 1, ptr %12, align 4
  br label %99

99:                                               ; preds = %98, %97, %80, %62, %45, %27, %17
  call void @llvm.lifetime.end.p0(i64 8, ptr %11) #7
  call void @llvm.lifetime.end.p0(i64 4, ptr %10) #7
  %100 = load i32, ptr %5, align 4
  ret i32 %100
}