; Function Attrs: nounwind uwtable
define hidden range(i32 -102, 1) i32 @mbedtls_asn1_get_alg(ptr noundef captures(none) %0, ptr noundef %1, ptr noundef writeonly captures(none) %2, ptr noundef %3) local_unnamed_addr #2 {
  %5 = load ptr, ptr %0, align 8, !tbaa !3
  %6 = ptrtoint ptr %1 to i64
  %7 = ptrtoint ptr %5 to i64
  %8 = sub i64 %6, %7
  %9 = icmp slt i64 %8, 1
  br i1 %9, label %mbedtls_asn1_get_tag.exit.thread, label %10

10:                                               ; preds = %4
  %11 = load i8, ptr %5, align 1, !tbaa !8
  %.not.i = icmp eq i8 %11, 48
  br i1 %.not.i, label %12, label %mbedtls_asn1_get_tag.exit.thread

12:                                               ; preds = %10
  %13 = getelementptr inbounds nuw i8, ptr %5, i64 1
  store ptr %13, ptr %0, align 8, !tbaa !3
  %14 = ptrtoint ptr %13 to i64
  %15 = sub i64 %6, %14
  %16 = icmp slt i64 %15, 1
  br i1 %16, label %mbedtls_asn1_get_tag.exit.thread, label %17

17:                                               ; preds = %12
  %18 = load i8, ptr %13, align 1, !tbaa !8
  %19 = icmp sgt i8 %18, -1
  br i1 %19, label %20, label %24

20:                                               ; preds = %17
  %21 = getelementptr inbounds nuw i8, ptr %5, i64 2
  store ptr %21, ptr %0, align 8, !tbaa !3
  %22 = load i8, ptr %13, align 1, !tbaa !8
  %23 = zext i8 %22 to i64
  br label %.loopexit.i.i

24:                                               ; preds = %17
  %25 = and i8 %18, 127
  %26 = zext nneg i8 %25 to i32
  %27 = add nsw i8 %25, -5
  %or.cond.i.i = icmp ult i8 %27, -4
  br i1 %or.cond.i.i, label %mbedtls_asn1_get_tag.exit.thread, label %28

28:                                               ; preds = %24
  %29 = zext nneg i8 %25 to i64
  %.not.i.i = icmp samesign ugt i64 %15, %29
  br i1 %.not.i.i, label %.lr.ph.preheader.i.i, label %mbedtls_asn1_get_tag.exit.thread

.lr.ph.preheader.i.i:                             ; preds = %28
  %storemerge32.i.i = getelementptr inbounds nuw i8, ptr %5, i64 2
  store ptr %storemerge32.i.i, ptr %0, align 8, !tbaa !3
  br label %.lr.ph.i.i

.lr.ph.i.i:                                       ; preds = %.lr.ph.i.i, %.lr.ph.preheader.i.i
  %storemerge36.i.i = phi ptr [ %storemerge.i.i, %.lr.ph.i.i ], [ %storemerge32.i.i, %.lr.ph.preheader.i.i ]
  %.02335.i.i = phi i32 [ %30, %.lr.ph.i.i ], [ %26, %.lr.ph.preheader.i.i ]
  %storemerge3134.i.i = phi i64 [ %34, %.lr.ph.i.i ], [ 0, %.lr.ph.preheader.i.i ]
  %30 = add nsw i32 %.02335.i.i, -1
  %31 = shl i64 %storemerge3134.i.i, 8
  %32 = load i8, ptr %storemerge36.i.i, align 1, !tbaa !8
  %33 = zext i8 %32 to i64
  %34 = or disjoint i64 %31, %33
  %storemerge.i.i = getelementptr inbounds nuw i8, ptr %storemerge36.i.i, i64 1
  store ptr %storemerge.i.i, ptr %0, align 8, !tbaa !3
  %.not27.i.i = icmp eq i32 %30, 0
  br i1 %.not27.i.i, label %.loopexit.i.i, label %.lr.ph.i.i, !llvm.loop !11

.loopexit.i.i:                                    ; preds = %.lr.ph.i.i, %20
  %.056 = phi i64 [ %23, %20 ], [ %34, %.lr.ph.i.i ]
  %35 = phi ptr [ %21, %20 ], [ %storemerge.i.i, %.lr.ph.i.i ]
  %36 = ptrtoint ptr %35 to i64
  %37 = sub i64 %6, %36
  %38 = icmp ugt i64 %.056, %37
  %39 = icmp slt i64 %37, 1
  %or.cond = or i1 %38, %39
  br i1 %or.cond, label %mbedtls_asn1_get_tag.exit.thread, label %40

40:                                               ; preds = %.loopexit.i.i
  %41 = load i8, ptr %35, align 1, !tbaa !8
  %42 = zext i8 %41 to i32
  store i32 %42, ptr %2, align 8, !tbaa !33
  %43 = getelementptr inbounds nuw i8, ptr %35, i64 %.056
  %44 = getelementptr inbounds nuw i8, ptr %2, i64 8
  %45 = ptrtoint ptr %43 to i64
  %46 = icmp slt i64 %.056, 1
  br i1 %46, label %mbedtls_asn1_get_tag.exit.thread, label %47

47:                                               ; preds = %40
  %48 = load i8, ptr %35, align 1, !tbaa !8
  %.not.i40 = icmp eq i8 %48, 6
  br i1 %.not.i40, label %49, label %mbedtls_asn1_get_tag.exit.thread

49:                                               ; preds = %47
  %50 = getelementptr inbounds nuw i8, ptr %35, i64 1
  store ptr %50, ptr %0, align 8, !tbaa !3
  %gepdiff = add nsw i64 %.056, -1
  %51 = icmp eq i64 %.056, 1
  br i1 %51, label %mbedtls_asn1_get_tag.exit.thread, label %52

52:                                               ; preds = %49
  %53 = load i8, ptr %50, align 1, !tbaa !8
  %54 = icmp sgt i8 %53, -1
  br i1 %54, label %55, label %59

55:                                               ; preds = %52
  %56 = getelementptr inbounds nuw i8, ptr %35, i64 2
  store ptr %56, ptr %0, align 8, !tbaa !3
  %57 = load i8, ptr %50, align 1, !tbaa !8
  %58 = zext i8 %57 to i64
  store i64 %58, ptr %44, align 8, !tbaa !9
  br label %.loopexit.i.i52

59:                                               ; preds = %52
  %60 = and i8 %53, 127
  %61 = zext nneg i8 %60 to i32
  %62 = add nsw i8 %60, -5
  %or.cond.i.i42 = icmp ult i8 %62, -4
  br i1 %or.cond.i.i42, label %mbedtls_asn1_get_tag.exit.thread, label %63

63:                                               ; preds = %59
  %64 = zext nneg i8 %60 to i64
  %.not.i.i43 = icmp samesign ugt i64 %gepdiff, %64
  br i1 %.not.i.i43, label %.lr.ph.preheader.i.i44, label %mbedtls_asn1_get_tag.exit.thread

.lr.ph.preheader.i.i44:                           ; preds = %63
  store i64 0, ptr %44, align 8, !tbaa !9
  %storemerge32.i.i45 = getelementptr inbounds nuw i8, ptr %35, i64 2
  store ptr %storemerge32.i.i45, ptr %0, align 8, !tbaa !3
  br label %.lr.ph.i.i46

.lr.ph.i.i46:                                     ; preds = %.lr.ph.i.i46, %.lr.ph.preheader.i.i44
  %storemerge36.i.i47 = phi ptr [ %storemerge.i.i50, %.lr.ph.i.i46 ], [ %storemerge32.i.i45, %.lr.ph.preheader.i.i44 ]
  %.02335.i.i48 = phi i32 [ %65, %.lr.ph.i.i46 ], [ %61, %.lr.ph.preheader.i.i44 ]
  %storemerge3134.i.i49 = phi i64 [ %69, %.lr.ph.i.i46 ], [ 0, %.lr.ph.preheader.i.i44 ]
  %65 = add nsw i32 %.02335.i.i48, -1
  %66 = shl i64 %storemerge3134.i.i49, 8
  %67 = load i8, ptr %storemerge36.i.i47, align 1, !tbaa !8
  %68 = zext i8 %67 to i64
  %69 = or disjoint i64 %66, %68
  store i64 %69, ptr %44, align 8, !tbaa !9
  %storemerge.i.i50 = getelementptr inbounds nuw i8, ptr %storemerge36.i.i47, i64 1
  store ptr %storemerge.i.i50, ptr %0, align 8, !tbaa !3
  %.not27.i.i51 = icmp eq i32 %65, 0
  br i1 %.not27.i.i51, label %.loopexit.i.i52, label %.lr.ph.i.i46, !llvm.loop !11

.loopexit.i.i52:                                  ; preds = %.lr.ph.i.i46, %55
  %70 = phi ptr [ %56, %55 ], [ %storemerge.i.i50, %.lr.ph.i.i46 ]
  %71 = phi i64 [ %58, %55 ], [ %69, %.lr.ph.i.i46 ]
  %72 = ptrtoint ptr %70 to i64
  %73 = sub i64 %45, %72
  %74 = icmp ugt i64 %71, %73
  br i1 %74, label %mbedtls_asn1_get_tag.exit.thread, label %mbedtls_asn1_get_tag.exit54

mbedtls_asn1_get_tag.exit54:                      ; preds = %.loopexit.i.i52
  %75 = getelementptr inbounds nuw i8, ptr %2, i64 16
  store ptr %70, ptr %75, align 8, !tbaa !34
  %76 = load ptr, ptr %0, align 8, !tbaa !3
  %77 = getelementptr inbounds nuw i8, ptr %76, i64 %71
  store ptr %77, ptr %0, align 8, !tbaa !3
  %78 = icmp eq ptr %77, %43
  br i1 %78, label %79, label %80

79:                                               ; preds = %mbedtls_asn1_get_tag.exit54
  tail call void @mbedtls_platform_zeroize(ptr noundef %3, i64 noundef 24) #10
  br label %mbedtls_asn1_get_tag.exit.thread

80:                                               ; preds = %mbedtls_asn1_get_tag.exit54
  %81 = load i8, ptr %77, align 1, !tbaa !8
  %82 = zext i8 %81 to i32
  store i32 %82, ptr %3, align 8, !tbaa !33
  %83 = getelementptr inbounds nuw i8, ptr %77, i64 1
  store ptr %83, ptr %0, align 8, !tbaa !3
  %84 = getelementptr inbounds nuw i8, ptr %3, i64 8
  %85 = ptrtoint ptr %83 to i64
  %86 = sub i64 %45, %85
  %87 = icmp slt i64 %86, 1
  br i1 %87, label %mbedtls_asn1_get_tag.exit.thread, label %88

88:                                               ; preds = %80
  %89 = load i8, ptr %83, align 1, !tbaa !8
  %90 = icmp sgt i8 %89, -1
  br i1 %90, label %91, label %95

91:                                               ; preds = %88
  %92 = getelementptr inbounds nuw i8, ptr %77, i64 2
  store ptr %92, ptr %0, align 8, !tbaa !3
  %93 = load i8, ptr %83, align 1, !tbaa !8
  %94 = zext i8 %93 to i64
  store i64 %94, ptr %84, align 8, !tbaa !9
  br label %.loopexit.i

95:                                               ; preds = %88
  %96 = and i8 %89, 127
  %97 = zext nneg i8 %96 to i32
  %98 = add nsw i8 %96, -5
  %or.cond.i = icmp ult i8 %98, -4
  br i1 %or.cond.i, label %mbedtls_asn1_get_tag.exit.thread, label %99

99:                                               ; preds = %95
  %100 = zext nneg i8 %96 to i64
  %.not.i55 = icmp samesign ugt i64 %86, %100
  br i1 %.not.i55, label %.lr.ph.preheader.i, label %mbedtls_asn1_get_tag.exit.thread

.lr.ph.preheader.i:                               ; preds = %99
  store i64 0, ptr %84, align 8, !tbaa !9
  %storemerge32.i = getelementptr inbounds nuw i8, ptr %77, i64 2
  store ptr %storemerge32.i, ptr %0, align 8, !tbaa !3
  br label %.lr.ph.i

.lr.ph.i:                                         ; preds = %.lr.ph.i, %.lr.ph.preheader.i
  %storemerge36.i = phi ptr [ %storemerge.i, %.lr.ph.i ], [ %storemerge32.i, %.lr.ph.preheader.i ]
  %.02335.i = phi i32 [ %101, %.lr.ph.i ], [ %97, %.lr.ph.preheader.i ]
  %storemerge3134.i = phi i64 [ %105, %.lr.ph.i ], [ 0, %.lr.ph.preheader.i ]
  %101 = add nsw i32 %.02335.i, -1
  %102 = shl i64 %storemerge3134.i, 8
  %103 = load i8, ptr %storemerge36.i, align 1, !tbaa !8
  %104 = zext i8 %103 to i64
  %105 = or disjoint i64 %102, %104
  store i64 %105, ptr %84, align 8, !tbaa !9
  %storemerge.i = getelementptr inbounds nuw i8, ptr %storemerge36.i, i64 1
  store ptr %storemerge.i, ptr %0, align 8, !tbaa !3
  %.not27.i = icmp eq i32 %101, 0
  br i1 %.not27.i, label %.loopexit.i, label %.lr.ph.i, !llvm.loop !11

.loopexit.i:                                      ; preds = %.lr.ph.i, %91
  %106 = phi ptr [ %92, %91 ], [ %storemerge.i, %.lr.ph.i ]
  %107 = phi i64 [ %94, %91 ], [ %105, %.lr.ph.i ]
  %108 = ptrtoint ptr %106 to i64
  %109 = sub i64 %45, %108
  %110 = icmp ugt i64 %107, %109
  br i1 %110, label %mbedtls_asn1_get_tag.exit.thread, label %mbedtls_asn1_get_len.exit

mbedtls_asn1_get_len.exit:                        ; preds = %.loopexit.i
  %111 = getelementptr inbounds nuw i8, ptr %3, i64 16
  store ptr %106, ptr %111, align 8, !tbaa !34
  %112 = load ptr, ptr %0, align 8, !tbaa !3
  %113 = getelementptr inbounds nuw i8, ptr %112, i64 %107
  store ptr %113, ptr %0, align 8, !tbaa !3
  %.not39 = icmp eq ptr %113, %43
  %. = select i1 %.not39, i32 0, i32 -102
  br label %mbedtls_asn1_get_tag.exit.thread

mbedtls_asn1_get_tag.exit.thread:                 ; preds = %.loopexit.i, %95, %99, %80, %.loopexit.i.i52, %59, %63, %49, %47, %40, %.loopexit.i.i, %24, %28, %12, %10, %4, %mbedtls_asn1_get_len.exit, %79
  %.0 = phi i32 [ 0, %79 ], [ %., %mbedtls_asn1_get_len.exit ], [ -100, %24 ], [ -96, %28 ], [ -96, %12 ], [ -98, %10 ], [ -96, %4 ], [ -96, %.loopexit.i.i ], [ -100, %59 ], [ -96, %63 ], [ -96, %49 ], [ -98, %47 ], [ -96, %40 ], [ -96, %.loopexit.i.i52 ], [ -100, %95 ], [ -96, %99 ], [ -96, %80 ], [ -96, %.loopexit.i ]
  ret i32 %.0
}